; Function Attrs: nounwind uwtable
define ptr @Hop_Or(ptr noundef %0, ptr noundef %1, ptr noundef %2) local_unnamed_addr #0 {
  %4 = ptrtoint ptr %1 to i64
  %5 = xor i64 %4, 1
  %6 = inttoptr i64 %5 to ptr
  %7 = ptrtoint ptr %2 to i64
  %8 = xor i64 %7, 1
  %9 = inttoptr i64 %8 to ptr
  %10 = icmp eq ptr %1, %2
  br i1 %10, label %Hop_And.exit, label %11

11:                                               ; preds = %3
  %12 = icmp eq ptr %2, %6
  br i1 %12, label %13, label %19

13:                                               ; preds = %11
  %14 = getelementptr inbounds nuw i8, ptr %0, i64 24
  %15 = load ptr, ptr %14, align 8, !tbaa !20
  %16 = ptrtoint ptr %15 to i64
  %17 = xor i64 %16, 1
  %18 = inttoptr i64 %17 to ptr
  br label %Hop_And.exit

19:                                               ; preds = %11
  %20 = and i64 %4, -2
  %21 = inttoptr i64 %20 to ptr
  %22 = getelementptr inbounds nuw i8, ptr %0, i64 24
  %23 = load ptr, ptr %22, align 8, !tbaa !20
  %24 = icmp eq ptr %23, %21
  br i1 %24, label %25, label %30

25:                                               ; preds = %19
  %26 = icmp eq i64 %5, %20
  br i1 %26, label %Hop_And.exit, label %27

27:                                               ; preds = %25
  %28 = or i64 %4, 1
  %29 = inttoptr i64 %28 to ptr
  br label %Hop_And.exit

30:                                               ; preds = %19
  %31 = and i64 %7, -2
  %32 = inttoptr i64 %31 to ptr
  %33 = icmp eq ptr %23, %32
  br i1 %33, label %34, label %40

34:                                               ; preds = %30
  %35 = icmp eq ptr %23, %9
  br i1 %35, label %Hop_And.exit, label %36

36:                                               ; preds = %34
  %37 = ptrtoint ptr %23 to i64
  %38 = xor i64 %37, 1
  %39 = inttoptr i64 %38 to ptr
  br label %Hop_And.exit

40:                                               ; preds = %30
  %41 = getelementptr inbounds nuw i8, ptr %0, i64 64
  %42 = load i32, ptr %41, align 8
  %43 = and i32 %42, -8
  %44 = or disjoint i32 %43, 4
  store i32 %44, ptr %41, align 8
  %45 = getelementptr inbounds nuw i8, ptr %21, i64 36
  %46 = load i32, ptr %45, align 4, !tbaa !21
  %47 = getelementptr inbounds nuw i8, ptr %32, i64 36
  %48 = load i32, ptr %47, align 4, !tbaa !21
  %49 = icmp slt i32 %46, %48
  %spec.select.i.i = select i1 %49, ptr %6, ptr %9
  %spec.select14.i.i = select i1 %49, ptr %9, ptr %6
  %50 = getelementptr inbounds nuw i8, ptr %0, i64 48
  store ptr %spec.select.i.i, ptr %50, align 8, !tbaa !22
  %51 = getelementptr inbounds nuw i8, ptr %0, i64 56
  store ptr %spec.select14.i.i, ptr %51, align 8, !tbaa !23
  %52 = getelementptr inbounds nuw i8, ptr %0, i64 32
  %53 = tail call ptr @Hop_TableLookup(ptr noundef nonnull %0, ptr noundef nonnull %52) #2
  %.not.i = icmp eq ptr %53, null
  br i1 %.not.i, label %54, label %Hop_And.exit

54:                                               ; preds = %40
  %55 = tail call ptr @Hop_ObjCreate(ptr noundef nonnull %0, ptr noundef nonnull %52) #2
  br label %Hop_And.exit

Hop_And.exit:                                     ; preds = %3, %13, %25, %27, %34, %36, %40, %54
  %.0.i = phi ptr [ %18, %13 ], [ %55, %54 ], [ %6, %3 ], [ %29, %27 ], [ %9, %25 ], [ %39, %36 ], [ %6, %34 ], [ %53, %40 ]
  %56 = ptrtoint ptr %.0.i to i64
  %57 = xor i64 %56, 1
  %58 = inttoptr i64 %57 to ptr
  ret ptr %58
}